target datalayout = "e-m:e-p270:32:32-p271:32:32-p272:64:64-i64:64-i128:128-f80:128-n8:16:32:64-S128"
target triple = "x86_64-pc-linux-gnu"

%struct.MtrNode = type { i32, i32, i32, i32, ptr, ptr, ptr, ptr }

; Function Attrs: nounwind uwtable
define internal i32 @zddTreeSiftingAux(ptr noundef %0, ptr noundef %1, i32 noundef %2) #0 {
  %4 = alloca i32, align 4
  %5 = alloca ptr, align 8
  %6 = alloca ptr, align 8
  %7 = alloca i32, align 4
  %8 = alloca ptr, align 8
  %9 = alloca i32, align 4
  %10 = alloca i32, align 4
  store ptr %0, ptr %5, align 8, !tbaa !3
  store ptr %1, ptr %6, align 8, !tbaa !29
  store i32 %2, ptr %7, align 4, !tbaa !8
  call void @llvm.lifetime.start.p0(i64 8, ptr %8) #5
  call void @llvm.lifetime.start.p0(i64 4, ptr %9) #5
  %11 = load ptr, ptr %6, align 8, !tbaa !29
  store ptr %11, ptr %8, align 8, !tbaa !29
  br label %12

12:                                               ; preds = %51, %3
  %13 = load ptr, ptr %8, align 8, !tbaa !29
  %14 = icmp ne ptr %13, null
  br i1 %14, label %15, label %55

15:                                               ; preds = %12
  %16 = load ptr, ptr %8, align 8, !tbaa !29
  %17 = getelementptr inbounds nuw %struct.MtrNode, ptr %16, i32 0, i32 5
  %18 = load ptr, ptr %17, align 8, !tbaa !38
  %19 = icmp ne ptr %18, null
  br i1 %19, label %20, label %37

20:                                               ; preds = %15
  %21 = load ptr, ptr %5, align 8, !tbaa !3
  %22 = load ptr, ptr %8, align 8, !tbaa !29
  %23 = getelementptr inbounds nuw %struct.MtrNode, ptr %22, i32 0, i32 5
  %24 = load ptr, ptr %23, align 8, !tbaa !38
  %25 = load i32, ptr %7, align 4, !tbaa !8
  %26 = call i32 @zddTreeSiftingAux(ptr noundef %21, ptr noundef %24, i32 noundef %25)
  %27 = icmp ne i32 %26, 0
  br i1 %27, label %29, label %28

28:                                               ; preds = %20
  store i32 0, ptr %4, align 4
  store i32 1, ptr %10, align 4
  br label %56

29:                                               ; preds = %20
  %30 = load ptr, ptr %5, align 8, !tbaa !3
  %31 = load ptr, ptr %8, align 8, !tbaa !29
  %32 = call i32 @zddReorderChildren(ptr noundef %30, ptr noundef %31, i32 noundef 14)
  store i32 %32, ptr %9, align 4, !tbaa !8
  %33 = load i32, ptr %9, align 4, !tbaa !8
  %34 = icmp eq i32 %33, 0
  br i1 %34, label %35, label %36

35:                                               ; preds = %29
  store i32 0, ptr %4, align 4
  store i32 1, ptr %10, align 4
  br label %56

36:                                               ; preds = %29
  br label %51

37:                                               ; preds = %15
  %38 = load ptr, ptr %8, align 8, !tbaa !29
  %39 = getelementptr inbounds nuw %struct.MtrNode, ptr %38, i32 0, i32 2
  %40 = load i32, ptr %39, align 8, !tbaa !33
  %41 = icmp ugt i32 %40, 1
  br i1 %41, label %42, label %50

42:                                               ; preds = %37
  %43 = load ptr, ptr %5, align 8, !tbaa !3
  %44 = load ptr, ptr %8, align 8, !tbaa !29
  %45 = load i32, ptr %7, align 4, !tbaa !8
  %46 = call i32 @zddReorderChildren(ptr noundef %43, ptr noundef %44, i32 noundef %45)
  %47 = icmp ne i32 %46, 0
  br i1 %47, label %49, label %48

48:                                               ; preds = %42
  store i32 0, ptr %4, align 4
  store i32 1, ptr %10, align 4
  br label %56

49:                                               ; preds = %42
  br label %50

50:                                               ; preds = %49, %37
  br label %51

51:                                               ; preds = %50, %36
  %52 = load ptr, ptr %8, align 8, !tbaa !29
  %53 = getelementptr inbounds nuw %struct.MtrNode, ptr %52, i32 0, i32 7
  %54 = load ptr, ptr %53, align 8, !tbaa !39
  store ptr %54, ptr %8, align 8, !tbaa !29
  br label %12, !llvm.loop !40

55:                                               ; preds = %12
  store i32 1, ptr %4, align 4
  store i32 1, ptr %10, align 4
  br label %56

56:                                               ; preds = %55, %48, %35, %28
  call void @llvm.lifetime.end.p0(i64 4, ptr %9) #5
  call void @llvm.lifetime.end.p0(i64 8, ptr %8) #5
  %57 = load i32, ptr %4, align 4
  ret i32 %57
}