; Function Attrs: nounwind uwtable
define internal fastcc range(i32 0, 2) i32 @zddTreeSiftingAux(ptr noundef %0, ptr noundef %1, i32 noundef %2) unnamed_addr #0 {
  %.not19 = icmp eq ptr %1, null
  br i1 %.not19, label %._crit_edge, label %.lr.ph

.lr.ph:                                           ; preds = %3, %17
  %.01420 = phi ptr [ %19, %17 ], [ %1, %3 ]
  %4 = getelementptr inbounds nuw i8, ptr %.01420, i64 24
  %5 = load ptr, ptr %4, align 8, !tbaa !35
  %.not16 = icmp eq ptr %5, null
  br i1 %.not16, label %11, label %6

6:                                                ; preds = %.lr.ph
  %7 = tail call fastcc i32 @zddTreeSiftingAux(ptr noundef %0, ptr noundef nonnull %5, i32 noundef %2)
  %.not18 = icmp eq i32 %7, 0
  br i1 %.not18, label %._crit_edge, label %8

8:                                                ; preds = %6
  %9 = tail call fastcc i32 @zddReorderChildren(ptr noundef %0, ptr noundef %.01420, i32 noundef 14)
  %10 = icmp eq i32 %9, 0
  br i1 %10, label %._crit_edge, label %17

11:                                               ; preds = %.lr.ph
  %12 = getelementptr inbounds nuw i8, ptr %.01420, i64 8
  %13 = load i32, ptr %12, align 8, !tbaa !30
  %14 = icmp ugt i32 %13, 1
  br i1 %14, label %15, label %17

15:                                               ; preds = %11
  %16 = tail call fastcc i32 @zddReorderChildren(ptr noundef %0, ptr noundef %.01420, i32 noundef %2)
  %.not17 = icmp eq i32 %16, 0
  br i1 %.not17, label %._crit_edge, label %17

17:                                               ; preds = %11, %15, %8
  %18 = getelementptr inbounds nuw i8, ptr %.01420, i64 40
  %19 = load ptr, ptr %18, align 8, !tbaa !36
  %.not = icmp eq ptr %19, null
  br i1 %.not, label %._crit_edge, label %.lr.ph, !llvm.loop !37

._crit_edge:                                      ; preds = %6, %8, %15, %17, %3
  %.0 = phi i32 [ 1, %3 ], [ 1, %17 ], [ 0, %15 ], [ 0, %8 ], [ 0, %6 ]
  ret i32 %.0
}